target datalayout = "e-m:e-p270:32:32-p271:32:32-p272:64:64-i64:64-i128:128-f80:128-n8:16:32:64-S128"
target triple = "x86_64-pc-linux-gnu"

%struct.sct_ctx_st = type { ptr, ptr, i64, ptr, i64, ptr, i64, ptr, i64, i64, ptr, ptr }
%struct.sct_st = type { i32, ptr, i64, ptr, i64, i64, ptr, i64, i8, i8, ptr, i64, i32, i32, i32 }

@.str = private unnamed_addr constant [30 x i8] c"../openssl/crypto/ct/ct_vfy.c\00", align 1
@__func__.SCT_CTX_verify = private unnamed_addr constant [15 x i8] c"SCT_CTX_verify\00", align 1
@.str.1 = private unnamed_addr constant [9 x i8] c"SHA2-256\00", align 1

; Function Attrs: nounwind uwtable
define i32 @SCT_CTX_verify(ptr noundef %0, ptr noundef %1) #0 {
  %3 = alloca i32, align 4
  %4 = alloca ptr, align 8
  %5 = alloca ptr, align 8
  %6 = alloca ptr, align 8
  %7 = alloca i32, align 4
  %8 = alloca i32, align 4
  store ptr %0, ptr %4, align 8, !tbaa !3
  store ptr %1, ptr %5, align 8, !tbaa !8
  call void @llvm.lifetime.start.p0(i64 8, ptr %6) #4
  store ptr null, ptr %6, align 8, !tbaa !10
  call void @llvm.lifetime.start.p0(i64 4, ptr %7) #4
  store i32 0, ptr %7, align 4, !tbaa !12
  %9 = load ptr, ptr %5, align 8, !tbaa !8
  %10 = call i32 @SCT_is_complete(ptr noundef %9)
  %11 = icmp ne i32 %10, 0
  br i1 %11, label %12, label %32

12:                                               ; preds = %2
  %13 = load ptr, ptr %4, align 8, !tbaa !3
  %14 = getelementptr inbounds nuw %struct.sct_ctx_st, ptr %13, i32 0, i32 0
  %15 = load ptr, ptr %14, align 8, !tbaa !14
  %16 = icmp eq ptr %15, null
  br i1 %16, label %32, label %17

17:                                               ; preds = %12
  %18 = load ptr, ptr %5, align 8, !tbaa !8
  %19 = getelementptr inbounds nuw %struct.sct_st, ptr %18, i32 0, i32 12
  %20 = load i32, ptr %19, align 8, !tbaa !20
  %21 = icmp eq i32 %20, -1
  br i1 %21, label %32, label %22

22:                                               ; preds = %17
  %23 = load ptr, ptr %5, align 8, !tbaa !8
  %24 = getelementptr inbounds nuw %struct.sct_st, ptr %23, i32 0, i32 12
  %25 = load i32, ptr %24, align 8, !tbaa !20
  %26 = icmp eq i32 %25, 1
  br i1 %26, label %27, label %33

27:                                               ; preds = %22
  %28 = load ptr, ptr %4, align 8, !tbaa !3
  %29 = getelementptr inbounds nuw %struct.sct_ctx_st, ptr %28, i32 0, i32 3
  %30 = load ptr, ptr %29, align 8, !tbaa !22
  %31 = icmp eq ptr %30, null
  br i1 %31, label %32, label %33

32:                                               ; preds = %27, %17, %12, %2
  call void @ERR_new()
  call void @ERR_set_debug(ptr noundef @.str, i32 noundef 104, ptr noundef @__func__.SCT_CTX_verify)
  call void (i32, i32, ptr, ...) @ERR_set_error(i32 noundef 50, i32 noundef 106, ptr noundef null)
  store i32 0, ptr %3, align 4
  store i32 1, ptr %8, align 4
  br label %111

33:                                               ; preds = %27, %22
  %34 = load ptr, ptr %5, align 8, !tbaa !8
  %35 = getelementptr inbounds nuw %struct.sct_st, ptr %34, i32 0, i32 0
  %36 = load i32, ptr %35, align 8, !tbaa !23
  %37 = icmp ne i32 %36, 0
  br i1 %37, label %38, label %39

38:                                               ; preds = %33
  call void @ERR_new()
  call void @ERR_set_debug(ptr noundef @.str, i32 noundef 108, ptr noundef @__func__.SCT_CTX_verify)
  call void (i32, i32, ptr, ...) @ERR_set_error(i32 noundef 50, i32 noundef 115, ptr noundef null)
  store i32 0, ptr %3, align 4
  store i32 1, ptr %8, align 4
  br label %111

39:                                               ; preds = %33
  %40 = load ptr, ptr %5, align 8, !tbaa !8
  %41 = getelementptr inbounds nuw %struct.sct_st, ptr %40, i32 0, i32 4
  %42 = load i64, ptr %41, align 8, !tbaa !24
  %43 = load ptr, ptr %4, align 8, !tbaa !3
  %44 = getelementptr inbounds nuw %struct.sct_ctx_st, ptr %43, i32 0, i32 2
  %45 = load i64, ptr %44, align 8, !tbaa !25
  %46 = icmp ne i64 %42, %45
  br i1 %46, label %59, label %47

47:                                               ; preds = %39
  %48 = load ptr, ptr %5, align 8, !tbaa !8
  %49 = getelementptr inbounds nuw %struct.sct_st, ptr %48, i32 0, i32 3
  %50 = load ptr, ptr %49, align 8, !tbaa !26
  %51 = load ptr, ptr %4, align 8, !tbaa !3
  %52 = getelementptr inbounds nuw %struct.sct_ctx_st, ptr %51, i32 0, i32 1
  %53 = load ptr, ptr %52, align 8, !tbaa !27
  %54 = load ptr, ptr %4, align 8, !tbaa !3
  %55 = getelementptr inbounds nuw %struct.sct_ctx_st, ptr %54, i32 0, i32 2
  %56 = load i64, ptr %55, align 8, !tbaa !25
  %57 = call i32 @memcmp(ptr noundef %50, ptr noundef %53, i64 noundef %56) #5
  %58 = icmp ne i32 %57, 0
  br i1 %58, label %59, label %60

59:                                               ; preds = %47, %39
  call void @ERR_new()
  call void @ERR_set_debug(ptr noundef @.str, i32 noundef 113, ptr noundef @__func__.SCT_CTX_verify)
  call void (i32, i32, ptr, ...) @ERR_set_error(i32 noundef 50, i32 noundef 114, ptr noundef null)
  store i32 0, ptr %3, align 4
  store i32 1, ptr %8, align 4
  br label %111

60:                                               ; preds = %47
  %61 = load ptr, ptr %5, align 8, !tbaa !8
  %62 = getelementptr inbounds nuw %struct.sct_st, ptr %61, i32 0, i32 5
  %63 = load i64, ptr %62, align 8, !tbaa !28
  %64 = load ptr, ptr %4, align 8, !tbaa !3
  %65 = getelementptr inbounds nuw %struct.sct_ctx_st, ptr %64, i32 0, i32 9
  %66 = load i64, ptr %65, align 8, !tbaa !29
  %67 = icmp ugt i64 %63, %66
  br i1 %67, label %68, label %69

68:                                               ; preds = %60
  call void @ERR_new()
  call void @ERR_set_debug(ptr noundef @.str, i32 noundef 117, ptr noundef @__func__.SCT_CTX_verify)
  call void (i32, i32, ptr, ...) @ERR_set_error(i32 noundef 50, i32 noundef 116, ptr noundef null)
  store i32 0, ptr %3, align 4
  store i32 1, ptr %8, align 4
  br label %111

69:                                               ; preds = %60
  %70 = call ptr @EVP_MD_CTX_new()
  store ptr %70, ptr %6, align 8, !tbaa !10
  %71 = load ptr, ptr %6, align 8, !tbaa !10
  %72 = icmp eq ptr %71, null
  br i1 %72, label %73, label %74

73:                                               ; preds = %69
  br label %108

74:                                               ; preds = %69
  %75 = load ptr, ptr %6, align 8, !tbaa !10
  %76 = load ptr, ptr %4, align 8, !tbaa !3
  %77 = getelementptr inbounds nuw %struct.sct_ctx_st, ptr %76, i32 0, i32 10
  %78 = load ptr, ptr %77, align 8, !tbaa !30
  %79 = load ptr, ptr %4, align 8, !tbaa !3
  %80 = getelementptr inbounds nuw %struct.sct_ctx_st, ptr %79, i32 0, i32 11
  %81 = load ptr, ptr %80, align 8, !tbaa !31
  %82 = load ptr, ptr %4, align 8, !tbaa !3
  %83 = getelementptr inbounds nuw %struct.sct_ctx_st, ptr %82, i32 0, i32 0
  %84 = load ptr, ptr %83, align 8, !tbaa !14
  %85 = call i32 @EVP_DigestVerifyInit_ex(ptr noundef %75, ptr noundef null, ptr noundef @.str.1, ptr noundef %78, ptr noundef %81, ptr noundef %84, ptr noundef null)
  %86 = icmp ne i32 %85, 0
  br i1 %86, label %88, label %87

87:                                               ; preds = %74
  br label %108

88:                                               ; preds = %74
  %89 = load ptr, ptr %6, align 8, !tbaa !10
  %90 = load ptr, ptr %4, align 8, !tbaa !3
  %91 = load ptr, ptr %5, align 8, !tbaa !8
  %92 = call i32 @sct_ctx_update(ptr noundef %89, ptr noundef %90, ptr noundef %91)
  %93 = icmp ne i32 %92, 0
  br i1 %93, label %95, label %94

94:                                               ; preds = %88
  br label %108

95:                                               ; preds = %88
  %96 = load ptr, ptr %6, align 8, !tbaa !10
  %97 = load ptr, ptr %5, align 8, !tbaa !8
  %98 = getelementptr inbounds nuw %struct.sct_st, ptr %97, i32 0, i32 10
  %99 = load ptr, ptr %98, align 8, !tbaa !32
  %100 = load ptr, ptr %5, align 8, !tbaa !8
  %101 = getelementptr inbounds nuw %struct.sct_st, ptr %100, i32 0, i32 11
  %102 = load i64, ptr %101, align 8, !tbaa !33
  %103 = call i32 @EVP_DigestVerifyFinal(ptr noundef %96, ptr noundef %99, i64 noundef %102)
  store i32 %103, ptr %7, align 4, !tbaa !12
  %104 = load i32, ptr %7, align 4, !tbaa !12
  %105 = icmp eq i32 %104, 0
  br i1 %105, label %106, label %107

106:                                              ; preds = %95
  call void @ERR_new()
  call void @ERR_set_debug(ptr noundef @.str, i32 noundef 136, ptr noundef @__func__.SCT_CTX_verify)
  call void (i32, i32, ptr, ...) @ERR_set_error(i32 noundef 50, i32 noundef 107, ptr noundef null)
  br label %107

107:                                              ; preds = %106, %95
  br label %108

108:                                              ; preds = %107, %94, %87, %73
  %109 = load ptr, ptr %6, align 8, !tbaa !10
  call void @EVP_MD_CTX_free(ptr noundef %109)
  %110 = load i32, ptr %7, align 4, !tbaa !12
  store i32 %110, ptr %3, align 4
  store i32 1, ptr %8, align 4
  br label %111

111:                                              ; preds = %108, %68, %59, %38, %32
  call void @llvm.lifetime.end.p0(i64 4, ptr %7) #4
  call void @llvm.lifetime.end.p0(i64 8, ptr %6) #4
  %112 = load i32, ptr %3, align 4
  ret i32 %112
}