; Function Attrs: nounwind uwtable
define i32 @SCT_CTX_verify(ptr noundef readonly captures(none) %0, ptr noundef %1) local_unnamed_addr #0 {
  %3 = tail call i32 @SCT_is_complete(ptr noundef %1) #4
  %.not = icmp eq i32 %3, 0
  br i1 %.not, label %14, label %4

4:                                                ; preds = %2
  %5 = load ptr, ptr %0, align 8, !tbaa !3
  %6 = icmp eq ptr %5, null
  br i1 %6, label %14, label %7

7:                                                ; preds = %4
  %8 = getelementptr inbounds nuw i8, ptr %1, i64 88
  %9 = load i32, ptr %8, align 8, !tbaa !12
  switch i32 %9, label %15 [
    i32 -1, label %14
    i32 1, label %10
  ]

10:                                               ; preds = %7
  %11 = getelementptr inbounds nuw i8, ptr %0, i64 24
  %12 = load ptr, ptr %11, align 8, !tbaa !15
  %13 = icmp eq ptr %12, null
  br i1 %13, label %14, label %15

14:                                               ; preds = %7, %10, %4, %2
  tail call void @ERR_new() #4
  tail call void @ERR_set_debug(ptr noundef nonnull @.str, i32 noundef 104, ptr noundef nonnull @__func__.SCT_CTX_verify) #4
  tail call void (i32, i32, ptr, ...) @ERR_set_error(i32 noundef 50, i32 noundef 106, ptr noundef null) #4
  br label %57

15:                                               ; preds = %7, %10
  %16 = load i32, ptr %1, align 8, !tbaa !16
  %.not32 = icmp eq i32 %16, 0
  br i1 %.not32, label %18, label %17

17:                                               ; preds = %15
  tail call void @ERR_new() #4
  tail call void @ERR_set_debug(ptr noundef nonnull @.str, i32 noundef 108, ptr noundef nonnull @__func__.SCT_CTX_verify) #4
  tail call void (i32, i32, ptr, ...) @ERR_set_error(i32 noundef 50, i32 noundef 115, ptr noundef null) #4
  br label %57

18:                                               ; preds = %15
  %19 = getelementptr inbounds nuw i8, ptr %1, i64 32
  %20 = load i64, ptr %19, align 8, !tbaa !17
  %21 = getelementptr inbounds nuw i8, ptr %0, i64 16
  %22 = load i64, ptr %21, align 8, !tbaa !18
  %.not33 = icmp eq i64 %20, %22
  br i1 %.not33, label %23, label %28

23:                                               ; preds = %18
  %24 = getelementptr inbounds nuw i8, ptr %1, i64 24
  %25 = load ptr, ptr %24, align 8, !tbaa !19
  %26 = getelementptr inbounds nuw i8, ptr %0, i64 8
  %27 = load ptr, ptr %26, align 8, !tbaa !20
  %bcmp = tail call i32 @bcmp(ptr %25, ptr %27, i64 %20)
  %.not34 = icmp eq i32 %bcmp, 0
  br i1 %.not34, label %29, label %28

28:                                               ; preds = %23, %18
  tail call void @ERR_new() #4
  tail call void @ERR_set_debug(ptr noundef nonnull @.str, i32 noundef 113, ptr noundef nonnull @__func__.SCT_CTX_verify) #4
  tail call void (i32, i32, ptr, ...) @ERR_set_error(i32 noundef 50, i32 noundef 114, ptr noundef null) #4
  br label %57

29:                                               ; preds = %23
  %30 = getelementptr inbounds nuw i8, ptr %1, i64 40
  %31 = load i64, ptr %30, align 8, !tbaa !21
  %32 = getelementptr inbounds nuw i8, ptr %0, i64 72
  %33 = load i64, ptr %32, align 8, !tbaa !22
  %34 = icmp ugt i64 %31, %33
  br i1 %34, label %35, label %36

35:                                               ; preds = %29
  tail call void @ERR_new() #4
  tail call void @ERR_set_debug(ptr noundef nonnull @.str, i32 noundef 117, ptr noundef nonnull @__func__.SCT_CTX_verify) #4
  tail call void (i32, i32, ptr, ...) @ERR_set_error(i32 noundef 50, i32 noundef 116, ptr noundef null) #4
  br label %57

36:                                               ; preds = %29
  %37 = tail call ptr @EVP_MD_CTX_new() #4
  %38 = icmp eq ptr %37, null
  br i1 %38, label %56, label %39

39:                                               ; preds = %36
  %40 = getelementptr inbounds nuw i8, ptr %0, i64 80
  %41 = load ptr, ptr %40, align 8, !tbaa !23
  %42 = getelementptr inbounds nuw i8, ptr %0, i64 88
  %43 = load ptr, ptr %42, align 8, !tbaa !24
  %44 = load ptr, ptr %0, align 8, !tbaa !3
  %45 = tail call i32 @EVP_DigestVerifyInit_ex(ptr noundef nonnull %37, ptr noundef null, ptr noundef nonnull @.str.1, ptr noundef %41, ptr noundef %43, ptr noundef %44, ptr noundef null) #4
  %.not35 = icmp eq i32 %45, 0
  br i1 %.not35, label %56, label %46

46:                                               ; preds = %39
  %47 = tail call fastcc i32 @sct_ctx_update(ptr noundef %37, ptr noundef nonnull %0, ptr noundef nonnull %1)
  %.not36 = icmp eq i32 %47, 0
  br i1 %.not36, label %56, label %48

48:                                               ; preds = %46
  %49 = getelementptr inbounds nuw i8, ptr %1, i64 72
  %50 = load ptr, ptr %49, align 8, !tbaa !25
  %51 = getelementptr inbounds nuw i8, ptr %1, i64 80
  %52 = load i64, ptr %51, align 8, !tbaa !26
  %53 = tail call i32 @EVP_DigestVerifyFinal(ptr noundef nonnull %37, ptr noundef %50, i64 noundef %52) #4
  %54 = icmp eq i32 %53, 0
  br i1 %54, label %55, label %56

55:                                               ; preds = %48
  tail call void @ERR_new() #4
  tail call void @ERR_set_debug(ptr noundef nonnull @.str, i32 noundef 136, ptr noundef nonnull @__func__.SCT_CTX_verify) #4
  tail call void (i32, i32, ptr, ...) @ERR_set_error(i32 noundef 50, i32 noundef 107, ptr noundef null) #4
  br label %56

56:                                               ; preds = %48, %55, %46, %39, %36
  %.0 = phi i32 [ 0, %36 ], [ 0, %55 ], [ %53, %48 ], [ 0, %46 ], [ 0, %39 ]
  tail call void @EVP_MD_CTX_free(ptr noundef %37) #4
  br label %57

57:                                               ; preds = %56, %35, %28, %17, %14
  %.027 = phi i32 [ 0, %14 ], [ 0, %17 ], [ 0, %28 ], [ 0, %35 ], [ %.0, %56 ]
  ret i32 %.027
}